; Function Attrs: mustprogress uwtable
define void @_ZN6icu_7516FunctionReplacer7setDataEPKNS_23TransliterationRuleDataE(ptr nocapture noundef nonnull readonly align 8 dereferenceable(32) %this, ptr noundef %d) unnamed_addr #2 align 2 {
entry:
  %replacer = getelementptr inbounds i8, ptr %this, i64 24
  %0 = load ptr, ptr %replacer, align 8
  %vtable = load ptr, ptr %0, align 8
  %vfn = getelementptr inbounds i8, ptr %vtable, i64 48
  %1 = load ptr, ptr %vfn, align 8
  tail call void %1(ptr noundef nonnull align 8 dereferenceable(8) %0, ptr noundef %d)
  ret void
}